; Function Attrs: mustprogress nounwind uwtable
define hidden void @_ZNK23VectorPopulateIndexNode4emitEP17C2_MacroAssemblerP13PhaseRegAlloc(ptr noundef nonnull align 8 dereferenceable(112) %0, ptr noundef %1, ptr noundef %2) unnamed_addr #3 align 2 {
  %4 = getelementptr inbounds i8, ptr %0, i64 80
  %5 = load ptr, ptr %4, align 8
  %6 = load ptr, ptr %5, align 8
  %7 = getelementptr inbounds i8, ptr %6, i64 8
  %8 = load ptr, ptr %7, align 8
  %9 = tail call noundef i32 %8(ptr noundef nonnull align 8 dereferenceable(8) %5) #23
  %10 = getelementptr inbounds i8, ptr %0, i64 88
  %11 = load ptr, ptr %10, align 8
  %12 = load ptr, ptr %11, align 8
  %13 = getelementptr inbounds i8, ptr %12, i64 8
  %14 = load ptr, ptr %13, align 8
  %15 = tail call noundef i32 %14(ptr noundef nonnull align 8 dereferenceable(8) %11) #23
  %16 = getelementptr inbounds i8, ptr %0, i64 96
  %17 = load ptr, ptr %16, align 8
  %18 = load ptr, ptr %17, align 8
  %19 = getelementptr inbounds i8, ptr %18, i64 8
  %20 = load ptr, ptr %19, align 8
  %21 = tail call noundef i32 %20(ptr noundef nonnull align 8 dereferenceable(8) %17) #23
  %22 = tail call noundef i32 @_ZN7Matcher22vector_length_in_bytesEPK4Node(ptr noundef nonnull %0) #23
  %23 = tail call noundef i32 @_ZN7Matcher22vector_length_in_bytesEPK4Node(ptr noundef nonnull %0) #23
  switch i32 %23, label %26 [
    i32 4, label %_ZL22vector_length_encodingPK4Node.exit
    i32 8, label %_ZL22vector_length_encodingPK4Node.exit
    i32 16, label %_ZL22vector_length_encodingPK4Node.exit
    i32 32, label %24
    i32 64, label %25
  ]

24:                                               ; preds = %3
  br label %_ZL22vector_length_encodingPK4Node.exit

25:                                               ; preds = %3
  br label %_ZL22vector_length_encodingPK4Node.exit

26:                                               ; preds = %3
  %27 = load ptr, ptr @g_assert_poison, align 8
  store i8 88, ptr %27, align 1
  tail call void @_Z28report_should_not_reach_herePKci(ptr noundef nonnull @.str.22, i32 noundef 1228) #24
  unreachable

_ZL22vector_length_encodingPK4Node.exit:          ; preds = %3, %3, %3, %24, %25
  %.0.i.i = phi i32 [ 2, %25 ], [ 1, %24 ], [ 0, %3 ], [ 0, %3 ], [ 0, %3 ]
  %28 = add i32 %9, 1
  %29 = add i32 %28, %15
  %30 = add i32 %21, %29
  %31 = tail call noundef zeroext i8 @_ZN7Matcher25vector_element_basic_typeEPK4Node(ptr noundef nonnull %0) #23
  %32 = getelementptr inbounds i8, ptr %0, i64 104
  %33 = load ptr, ptr %32, align 8
  %34 = load ptr, ptr %33, align 8
  %35 = getelementptr inbounds i8, ptr %34, i64 40
  %36 = load ptr, ptr %35, align 8
  %37 = tail call noundef i32 %36(ptr noundef nonnull align 8 dereferenceable(8) %33, ptr noundef %2, ptr noundef nonnull %0, i32 noundef %30) #23
  %or.cond.i.i = icmp ult i32 %37, 32
  %spec.select.i.i = select i1 %or.cond.i.i, i32 %37, i32 -1
  %38 = load ptr, ptr %4, align 8
  %39 = load ptr, ptr %38, align 8
  %40 = getelementptr inbounds i8, ptr %39, i64 40
  %41 = load ptr, ptr %40, align 8
  %42 = tail call noundef i32 %41(ptr noundef nonnull align 8 dereferenceable(8) %38, ptr noundef %2, ptr noundef nonnull %0, i32 noundef 1) #23
  %or.cond.i.i29 = icmp ult i32 %42, 32
  %spec.select.i.i30 = select i1 %or.cond.i.i29, i32 %42, i32 -1
  tail call void @_ZN17C2_MacroAssembler11vpbroadcastE9BasicType11XMMRegister8Registeri(ptr noundef nonnull align 8 dereferenceable(40) %1, i8 noundef zeroext %31, i32 %spec.select.i.i, i32 %spec.select.i.i30, i32 noundef %.0.i.i) #23
  %43 = load ptr, ptr %16, align 8
  %44 = load ptr, ptr %43, align 8
  %45 = getelementptr inbounds i8, ptr %44, i64 40
  %46 = load ptr, ptr %45, align 8
  %47 = tail call noundef i32 %46(ptr noundef nonnull align 8 dereferenceable(8) %43, ptr noundef %2, ptr noundef nonnull %0, i32 noundef %29) #23
  %or.cond.i.i31 = icmp ult i32 %47, 32
  %spec.select.i.i32 = select i1 %or.cond.i.i31, i32 %47, i32 -1
  tail call void @_ZN17C2_MacroAssembler17load_iota_indicesE11XMMRegisteri9BasicType(ptr noundef nonnull align 8 dereferenceable(40) %1, i32 %spec.select.i.i32, i32 noundef %22, i8 noundef zeroext %31) #23
  %48 = load ptr, ptr %16, align 8
  %49 = load ptr, ptr %48, align 8
  %50 = getelementptr inbounds i8, ptr %49, i64 40
  %51 = load ptr, ptr %50, align 8
  %52 = tail call noundef i32 %51(ptr noundef nonnull align 8 dereferenceable(8) %48, ptr noundef %2, ptr noundef nonnull %0, i32 noundef %29) #23
  %or.cond.i.i33 = icmp ult i32 %52, 32
  %spec.select.i.i34 = select i1 %or.cond.i.i33, i32 %52, i32 -1
  %53 = load ptr, ptr %16, align 8
  %54 = load ptr, ptr %53, align 8
  %55 = getelementptr inbounds i8, ptr %54, i64 40
  %56 = load ptr, ptr %55, align 8
  %57 = tail call noundef i32 %56(ptr noundef nonnull align 8 dereferenceable(8) %53, ptr noundef %2, ptr noundef nonnull %0, i32 noundef %29) #23
  %or.cond.i.i35 = icmp ult i32 %57, 32
  %spec.select.i.i36 = select i1 %or.cond.i.i35, i32 %57, i32 -1
  %58 = load ptr, ptr %32, align 8
  %59 = load ptr, ptr %58, align 8
  %60 = getelementptr inbounds i8, ptr %59, i64 40
  %61 = load ptr, ptr %60, align 8
  %62 = tail call noundef i32 %61(ptr noundef nonnull align 8 dereferenceable(8) %58, ptr noundef %2, ptr noundef nonnull %0, i32 noundef %30) #23
  %or.cond.i.i37 = icmp ult i32 %62, 32
  %spec.select.i.i38 = select i1 %or.cond.i.i37, i32 %62, i32 -1
  tail call void @_ZN17C2_MacroAssembler5vpaddE9BasicType11XMMRegisterS1_S1_i(ptr noundef nonnull align 8 dereferenceable(40) %1, i8 noundef zeroext %31, i32 %spec.select.i.i34, i32 %spec.select.i.i36, i32 %spec.select.i.i38, i32 noundef %.0.i.i) #23
  ret void
}